target datalayout = "e-m:e-p270:32:32-p271:32:32-p272:64:64-i64:64-i128:128-f80:128-n8:16:32:64-S128"
target triple = "x86_64-pc-linux-gnu"

%struct._packet_info = type { ptr, ptr, i32, i32, %struct.nstime_t, %struct.nstime_t, %struct.nstime_t, i8, ptr, ptr, ptr, ptr, %struct._address, %struct._address, %struct._address, %struct._address, %struct._address, %struct._address, i32, ptr, i8, [3 x i8], %struct.anon, i32, i32, i32, i32, ptr, i8, ptr, ptr, i16, i16, i32, i32, i16, i32, i32, ptr, ptr, ptr, i8, i8, i16, i16, i16, i32, i16, i16, ptr, ptr, ptr, ptr, ptr, i32, i32 }
%struct.nstime_t = type { i64, i32 }
%struct._address = type { i32, i32, ptr, ptr }
%struct.anon = type { i8, [3 x i8] }
%struct.__va_list_tag = type { i32, i32, ptr, ptr }

@write_pdu_label_and_info.info_buffer = internal global [256 x i8] zeroinitializer, align 16
@.str.223 = private unnamed_addr constant [3 x i8] c"%s\00", align 1

; Function Attrs: alwaysinline
define internal i32 @vsnprintf.inline(ptr noalias %0, i64 %1, ptr noalias %2, ptr %3) #7 {
  %5 = alloca ptr, align 8
  %6 = alloca i64, align 8
  %7 = alloca ptr, align 8
  %8 = alloca ptr, align 8
  store ptr %0, ptr %5, align 8
  store i64 %1, ptr %6, align 8
  store ptr %2, ptr %7, align 8
  store ptr %3, ptr %8, align 8
  %9 = load ptr, ptr %5, align 8
  %10 = load i64, ptr %6, align 8
  %11 = load ptr, ptr %5, align 8
  %12 = call i64 @llvm.objectsize.i64.p0(ptr %11, i1 false, i1 true, i1 true)
  %13 = load ptr, ptr %7, align 8
  %14 = load ptr, ptr %8, align 8
  %15 = call i32 @__vsnprintf_chk(ptr noundef %9, i64 noundef %10, i32 noundef 2, i64 noundef %12, ptr noundef %13, ptr noundef %14)
  ret i32 %15
}

; Function Attrs: null_pointer_is_valid sspstrong uwtable
define internal void @write_pdu_label_and_info(ptr noundef %0, ptr noundef %1, ptr noundef %2, ptr noundef %3, ...) #0 {
  %5 = alloca ptr, align 8
  %6 = alloca ptr, align 8
  %7 = alloca ptr, align 8
  %8 = alloca ptr, align 8
  %9 = alloca [1 x %struct.__va_list_tag], align 16
  store ptr %0, ptr %5, align 8
  store ptr %1, ptr %6, align 8
  store ptr %2, ptr %7, align 8
  store ptr %3, ptr %8, align 8
  call void @llvm.lifetime.start.p0(i64 24, ptr %9) #12
  %10 = getelementptr inbounds [1 x %struct.__va_list_tag], ptr %9, i64 0, i64 0
  call void @llvm.va_start.p0(ptr %10)
  %11 = load ptr, ptr %8, align 8
  %12 = getelementptr inbounds [1 x %struct.__va_list_tag], ptr %9, i64 0, i64 0
  %13 = call i32 @vsnprintf.inline(ptr noundef @write_pdu_label_and_info.info_buffer, i64 noundef 256, ptr noundef %11, ptr noundef %12) #12
  %14 = getelementptr inbounds [1 x %struct.__va_list_tag], ptr %9, i64 0, i64 0
  call void @llvm.va_end.p0(ptr %14)
  %15 = load ptr, ptr %7, align 8
  %16 = getelementptr inbounds nuw %struct._packet_info, ptr %15, i32 0, i32 1
  %17 = load ptr, ptr %16, align 8
  call void @col_append_str(ptr noundef %17, i32 noundef 25, ptr noundef @write_pdu_label_and_info.info_buffer)
  %18 = load ptr, ptr %5, align 8
  call void (ptr, ptr, ...) @proto_item_append_text(ptr noundef %18, ptr noundef @.str.223, ptr noundef @write_pdu_label_and_info.info_buffer)
  %19 = load ptr, ptr %6, align 8
  %20 = icmp ne ptr %19, null
  br i1 %20, label %21, label %23

21:                                               ; preds = %4
  %22 = load ptr, ptr %6, align 8
  call void (ptr, ptr, ...) @proto_item_append_text(ptr noundef %22, ptr noundef @.str.223, ptr noundef @write_pdu_label_and_info.info_buffer)
  br label %23

23:                                               ; preds = %21, %4
  call void @llvm.lifetime.end.p0(i64 24, ptr %9) #12
  ret void
}